(dp0
Vengine
p1
S'pdflatex'
p2
sVpackages
p3
c__builtin__
set
p4
((lp5
Vinputenc
p6
aVfontenc
p7
atp8
Rp9
sVfiles_with_guttermarks
p10
g4
((lp11
V/Users/AKA/Development/Beamer/CPH/./beamerouterthemeCPH.sty
p12
aV/Users/AKA/Development/Beamer/CPH/exampleCPH.tex
p13
aV/Users/AKA/Development/Beamer/CPH/./exampleCPH.tex
p14
aS'exampleCPH.tex'
p15
atp16
Rp17
sVsynctex
p18
I01
s.